; Function Attrs: nounwind uwtable
define ptr @l_Array_mapMUnsafe_map___at_Lean_Meta_SynthInstance_consume___spec__3___boxed(ptr noundef %0, ptr noundef %1, ptr noundef %2, ptr noundef %3, ptr noundef %4, ptr noundef %5, ptr noundef %6, ptr noundef %7, ptr noundef %8, ptr noundef %9, ptr noundef %10, ptr noundef %11, ptr noundef %12) local_unnamed_addr #1 {
  %14 = getelementptr i8, ptr %3, i64 8
  %.val20 = load i64, ptr %14, align 8, !tbaa !12
  %15 = ptrtoint ptr %3 to i64
  %16 = and i64 %15, 1
  %.not = icmp eq i64 %16, 0
  br i1 %.not, label %17, label %lean_dec.exit17

17:                                               ; preds = %13
  %18 = load i32, ptr %3, align 4, !tbaa !4
  %19 = icmp sgt i32 %18, 1
  br i1 %19, label %20, label %22, !prof !11

20:                                               ; preds = %17
  %21 = add nsw i32 %18, -1
  store i32 %21, ptr %3, align 4, !tbaa !4
  br label %lean_dec.exit17

22:                                               ; preds = %17
  %.not.i = icmp eq i32 %18, 0
  br i1 %.not.i, label %lean_dec.exit17, label %23

23:                                               ; preds = %22
  tail call void @lean_dec_ref_cold(ptr noundef nonnull %3) #7
  br label %lean_dec.exit17

lean_dec.exit17:                                  ; preds = %23, %22, %20, %13
  %24 = getelementptr i8, ptr %4, i64 8
  %.val = load i64, ptr %24, align 8, !tbaa !12
  %25 = ptrtoint ptr %4 to i64
  %26 = and i64 %25, 1
  %.not21 = icmp eq i64 %26, 0
  br i1 %.not21, label %27, label %lean_dec.exit

27:                                               ; preds = %lean_dec.exit17
  %28 = load i32, ptr %4, align 4, !tbaa !4
  %29 = icmp sgt i32 %28, 1
  br i1 %29, label %30, label %32, !prof !11

30:                                               ; preds = %27
  %31 = add nsw i32 %28, -1
  store i32 %31, ptr %4, align 4, !tbaa !4
  br label %lean_dec.exit

32:                                               ; preds = %27
  %.not.i18 = icmp eq i32 %28, 0
  br i1 %.not.i18, label %lean_dec.exit, label %33

33:                                               ; preds = %32
  tail call void @lean_dec_ref_cold(ptr noundef nonnull %4) #7
  br label %lean_dec.exit

lean_dec.exit:                                    ; preds = %33, %32, %30, %lean_dec.exit17
  %34 = tail call ptr @l_Array_mapMUnsafe_map___at_Lean_Meta_SynthInstance_consume___spec__3(ptr noundef %0, ptr noundef %1, ptr noundef %2, i64 noundef %.val20, i64 noundef %.val, ptr noundef %5, ptr noundef %6, ptr noundef %7, ptr noundef %8, ptr noundef %9, ptr noundef %10, ptr noundef %11, ptr noundef %12)
  ret ptr %34
}